; Function Attrs: nounwind uwtable
define ptr @l_Lake_Glob_toString(ptr noundef %0) #0 {
  %2 = ptrtoint ptr %0 to i64
  %3 = and i64 %2, 1
  %.not.i34 = icmp eq i64 %3, 0
  br i1 %.not.i34, label %7, label %4

4:                                                ; preds = %1
  %5 = lshr i64 %2, 1
  %6 = trunc i64 %5 to i32
  br label %lean_obj_tag.exit

7:                                                ; preds = %1
  %8 = getelementptr i8, ptr %0, i64 4
  %.val.i = load i32, ptr %8, align 4
  %9 = lshr i32 %.val.i, 24
  br label %lean_obj_tag.exit

lean_obj_tag.exit:                                ; preds = %4, %7
  %.0.i = phi i32 [ %6, %4 ], [ %9, %7 ]
  %10 = getelementptr inbounds nuw i8, ptr %0, i64 8
  %11 = load ptr, ptr %10, align 8, !tbaa !4
  %12 = ptrtoint ptr %11 to i64
  %13 = and i64 %12, 1
  %.not46 = icmp eq i64 %13, 0
  switch i32 %.0.i, label %48 [
    i32 0, label %14
    i32 1, label %30
  ]

14:                                               ; preds = %lean_obj_tag.exit
  br i1 %.not46, label %15, label %lean_inc.exit27

15:                                               ; preds = %14
  %.val.i35 = load i32, ptr %11, align 4, !tbaa !8
  %16 = icmp sgt i32 %.val.i35, 0
  br i1 %16, label %17, label %19, !prof !11

17:                                               ; preds = %15
  %18 = add nuw i32 %.val.i35, 1
  store i32 %18, ptr %11, align 4, !tbaa !8
  br label %lean_inc.exit27

19:                                               ; preds = %15
  %.not.i36 = icmp eq i32 %.val.i35, 0
  br i1 %.not.i36, label %lean_inc.exit27, label %20

20:                                               ; preds = %19
  tail call void @lean_inc_ref_cold(ptr noundef nonnull %11) #4
  br label %lean_inc.exit27

lean_inc.exit27:                                  ; preds = %20, %19, %17, %14
  br i1 %.not.i34, label %21, label %lean_dec.exit29

21:                                               ; preds = %lean_inc.exit27
  %22 = load i32, ptr %0, align 4, !tbaa !8
  %23 = icmp sgt i32 %22, 1
  br i1 %23, label %24, label %26, !prof !11

24:                                               ; preds = %21
  %25 = add nsw i32 %22, -1
  store i32 %25, ptr %0, align 4, !tbaa !8
  br label %lean_dec.exit29

26:                                               ; preds = %21
  %.not.i = icmp eq i32 %22, 0
  br i1 %.not.i, label %lean_dec.exit29, label %27

27:                                               ; preds = %26
  tail call void @lean_dec_ref_cold(ptr noundef nonnull %0) #4
  br label %lean_dec.exit29

lean_dec.exit29:                                  ; preds = %27, %26, %24, %lean_inc.exit27
  %28 = load ptr, ptr @l_Lake_Glob_toString___closed__1, align 8, !tbaa !4
  %29 = tail call ptr @l_Lean_Name_toString(ptr noundef %11, i8 noundef zeroext 1, ptr noundef %28) #4
  br label %66

30:                                               ; preds = %lean_obj_tag.exit
  br i1 %.not46, label %31, label %lean_inc.exit26

31:                                               ; preds = %30
  %.val.i37 = load i32, ptr %11, align 4, !tbaa !8
  %32 = icmp sgt i32 %.val.i37, 0
  br i1 %32, label %33, label %35, !prof !11

33:                                               ; preds = %31
  %34 = add nuw i32 %.val.i37, 1
  store i32 %34, ptr %11, align 4, !tbaa !8
  br label %lean_inc.exit26

35:                                               ; preds = %31
  %.not.i38 = icmp eq i32 %.val.i37, 0
  br i1 %.not.i38, label %lean_inc.exit26, label %36

36:                                               ; preds = %35
  tail call void @lean_inc_ref_cold(ptr noundef nonnull %11) #4
  br label %lean_inc.exit26

lean_inc.exit26:                                  ; preds = %36, %35, %33, %30
  br i1 %.not.i34, label %37, label %lean_dec.exit28

37:                                               ; preds = %lean_inc.exit26
  %38 = load i32, ptr %0, align 4, !tbaa !8
  %39 = icmp sgt i32 %38, 1
  br i1 %39, label %40, label %42, !prof !11

40:                                               ; preds = %37
  %41 = add nsw i32 %38, -1
  store i32 %41, ptr %0, align 4, !tbaa !8
  br label %lean_dec.exit28

42:                                               ; preds = %37
  %.not.i30 = icmp eq i32 %38, 0
  br i1 %.not.i30, label %lean_dec.exit28, label %43

43:                                               ; preds = %42
  tail call void @lean_dec_ref_cold(ptr noundef nonnull %0) #4
  br label %lean_dec.exit28

lean_dec.exit28:                                  ; preds = %43, %42, %40, %lean_inc.exit26
  %44 = load ptr, ptr @l_Lake_Glob_toString___closed__1, align 8, !tbaa !4
  %45 = tail call ptr @l_Lean_Name_toString(ptr noundef %11, i8 noundef zeroext 1, ptr noundef %44) #4
  %46 = load ptr, ptr @l_Lake_term_____x2e_x2b___closed__3, align 8, !tbaa !4
  %47 = tail call ptr @lean_string_append(ptr noundef %45, ptr noundef %46) #4
  br label %66

48:                                               ; preds = %lean_obj_tag.exit
  br i1 %.not46, label %49, label %lean_inc.exit

49:                                               ; preds = %48
  %.val.i40 = load i32, ptr %11, align 4, !tbaa !8
  %50 = icmp sgt i32 %.val.i40, 0
  br i1 %50, label %51, label %53, !prof !11

51:                                               ; preds = %49
  %52 = add nuw i32 %.val.i40, 1
  store i32 %52, ptr %11, align 4, !tbaa !8
  br label %lean_inc.exit

53:                                               ; preds = %49
  %.not.i41 = icmp eq i32 %.val.i40, 0
  br i1 %.not.i41, label %lean_inc.exit, label %54

54:                                               ; preds = %53
  tail call void @lean_inc_ref_cold(ptr noundef nonnull %11) #4
  br label %lean_inc.exit

lean_inc.exit:                                    ; preds = %54, %53, %51, %48
  br i1 %.not.i34, label %55, label %lean_dec.exit

55:                                               ; preds = %lean_inc.exit
  %56 = load i32, ptr %0, align 4, !tbaa !8
  %57 = icmp sgt i32 %56, 1
  br i1 %57, label %58, label %60, !prof !11

58:                                               ; preds = %55
  %59 = add nsw i32 %56, -1
  store i32 %59, ptr %0, align 4, !tbaa !8
  br label %lean_dec.exit

60:                                               ; preds = %55
  %.not.i32 = icmp eq i32 %56, 0
  br i1 %.not.i32, label %lean_dec.exit, label %61

61:                                               ; preds = %60
  tail call void @lean_dec_ref_cold(ptr noundef nonnull %0) #4
  br label %lean_dec.exit

lean_dec.exit:                                    ; preds = %61, %60, %58, %lean_inc.exit
  %62 = load ptr, ptr @l_Lake_Glob_toString___closed__1, align 8, !tbaa !4
  %63 = tail call ptr @l_Lean_Name_toString(ptr noundef %11, i8 noundef zeroext 1, ptr noundef %62) #4
  %64 = load ptr, ptr @l_Lake_term_____x2e_x2a___closed__16, align 8, !tbaa !4
  %65 = tail call ptr @lean_string_append(ptr noundef %63, ptr noundef %64) #4
  br label %66

66:                                               ; preds = %lean_dec.exit, %lean_dec.exit28, %lean_dec.exit29
  %.0 = phi ptr [ %65, %lean_dec.exit ], [ %47, %lean_dec.exit28 ], [ %29, %lean_dec.exit29 ]
  ret ptr %.0
}